target datalayout = "e-m:e-p270:32:32-p271:32:32-p272:64:64-i64:64-i128:128-f80:128-n8:16:32:64-S128"
target triple = "x86_64-pc-linux-gnu"

%struct.ComplexArray = type { ptr, ptr }
%struct.QuESTEnv = type { i32, i32, ptr, i32, ptr }
%struct.PauliHamil = type { ptr, ptr, i32, i32 }
%struct.DiagonalOp = type { i32, i64, i32, i32, ptr, ptr, %struct.ComplexArray }

@__func__.createDiagonalOpFromPauliHamilFile = private unnamed_addr constant [35 x i8] c"createDiagonalOpFromPauliHamilFile\00", align 1

; Function Attrs: nounwind uwtable
define void @destroyPauliHamil(ptr noundef byval(%struct.PauliHamil) align 8 %0) #0 {
  %2 = getelementptr inbounds nuw %struct.PauliHamil, ptr %0, i32 0, i32 1
  %3 = load ptr, ptr %2, align 8, !tbaa !37
  call void @free(ptr noundef %3) #7
  %4 = getelementptr inbounds nuw %struct.PauliHamil, ptr %0, i32 0, i32 0
  %5 = load ptr, ptr %4, align 8, !tbaa !35
  call void @free(ptr noundef %5) #7
  ret void
}

; Function Attrs: nounwind uwtable
define void @createDiagonalOpFromPauliHamilFile(ptr dead_on_unwind noalias writable sret(%struct.DiagonalOp) align 8 %0, ptr noundef %1, ptr noundef byval(%struct.QuESTEnv) align 8 %2) #0 {
  %4 = alloca ptr, align 8
  %5 = alloca %struct.PauliHamil, align 8
  store ptr %1, ptr %4, align 8, !tbaa !20
  call void @llvm.lifetime.start.p0(i64 24, ptr %5) #7
  %6 = load ptr, ptr %4, align 8, !tbaa !20
  call void @createPauliHamilFromFile(ptr dead_on_unwind writable sret(%struct.PauliHamil) align 8 %5, ptr noundef %6)
  %7 = getelementptr inbounds nuw %struct.QuESTEnv, ptr %2, i32 0, i32 1
  %8 = load i32, ptr %7, align 4, !tbaa !8
  call void @validateDiagPauliHamilFromFile(ptr noundef byval(%struct.PauliHamil) align 8 %5, i32 noundef %8, ptr noundef @__func__.createDiagonalOpFromPauliHamilFile)
  %9 = getelementptr inbounds nuw %struct.PauliHamil, ptr %5, i32 0, i32 3
  %10 = load i32, ptr %9, align 4, !tbaa !50
  call void @agnostic_createDiagonalOp(ptr dead_on_unwind writable sret(%struct.DiagonalOp) align 8 %0, i32 noundef %10, ptr noundef byval(%struct.QuESTEnv) align 8 %2)
  call void @agnostic_initDiagonalOpFromPauliHamil(ptr noundef byval(%struct.DiagonalOp) align 8 %0, ptr noundef byval(%struct.PauliHamil) align 8 %5)
  call void @destroyPauliHamil(ptr noundef byval(%struct.PauliHamil) align 8 %5)
  call void @llvm.lifetime.end.p0(i64 24, ptr %5) #7
  ret void
}