; Function Attrs: nounwind uwtable
define void @createDiagonalOpFromPauliHamilFile(ptr dead_on_unwind noalias writable sret(%struct.DiagonalOp) align 8 %0, ptr noundef %1, ptr noundef readonly byval(%struct.QuESTEnv) align 8 captures(none) %2) local_unnamed_addr #0 {
  %4 = alloca %struct.PauliHamil, align 8
  call void @llvm.lifetime.start.p0(i64 24, ptr nonnull %4) #17
  call void @createPauliHamilFromFile(ptr dead_on_unwind nonnull writable sret(%struct.PauliHamil) align 8 %4, ptr noundef %1)
  %5 = getelementptr inbounds nuw i8, ptr %2, i64 4
  %6 = load i32, ptr %5, align 4, !tbaa !4
  tail call void @validateDiagPauliHamilFromFile(ptr noundef nonnull byval(%struct.PauliHamil) align 8 %4, i32 noundef %6, ptr noundef nonnull @__func__.createDiagonalOpFromPauliHamilFile) #17
  %7 = getelementptr inbounds nuw i8, ptr %4, i64 20
  %8 = load i32, ptr %7, align 4, !tbaa !33
  tail call void @agnostic_createDiagonalOp(ptr dead_on_unwind writable sret(%struct.DiagonalOp) align 8 %0, i32 noundef %8, ptr noundef nonnull byval(%struct.QuESTEnv) align 8 %2) #17
  tail call void @agnostic_initDiagonalOpFromPauliHamil(ptr noundef byval(%struct.DiagonalOp) align 8 %0, ptr noundef nonnull byval(%struct.PauliHamil) align 8 %4) #17
  %.sroa.0.0.copyload = load ptr, ptr %4, align 8
  %.sroa.4.0..sroa_idx = getelementptr inbounds nuw i8, ptr %4, i64 8
  %.sroa.4.0.copyload = load ptr, ptr %.sroa.4.0..sroa_idx, align 8
  tail call void @free(ptr noundef %.sroa.4.0.copyload) #17
  tail call void @free(ptr noundef %.sroa.0.0.copyload) #17
  call void @llvm.lifetime.end.p0(i64 24, ptr nonnull %4) #17
  ret void
}